; Function Attrs: mustprogress nounwind uwtable
define hidden void @_ZN23CPUPerformanceInterfaceD2Ev(ptr nocapture noundef nonnull readonly align 8 dereferenceable(8) %0) unnamed_addr #0 align 2 {
  %2 = load ptr, ptr %0, align 8
  %.not = icmp eq ptr %2, null
  br i1 %.not, label %7, label %3

3:                                                ; preds = %1
  %4 = getelementptr inbounds i8, ptr %2, i64 48
  %5 = load ptr, ptr %4, align 8
  %.not.i = icmp eq ptr %5, null
  br i1 %.not.i, label %_ZN23CPUPerformanceInterface14CPUPerformanceD2Ev.exit, label %6

6:                                                ; preds = %3
  tail call void @_Z8FreeHeapPv(ptr noundef nonnull %5) #18
  br label %_ZN23CPUPerformanceInterface14CPUPerformanceD2Ev.exit

_ZN23CPUPerformanceInterface14CPUPerformanceD2Ev.exit: ; preds = %3, %6
  tail call void @_Z8FreeHeapPv(ptr noundef nonnull %2) #18
  br label %7

7:                                                ; preds = %_ZN23CPUPerformanceInterface14CPUPerformanceD2Ev.exit, %1
  ret void
}